target datalayout = "e-m:e-p270:32:32-p271:32:32-p272:64:64-i64:64-i128:128-f80:128-n8:16:32:64-S128"
target triple = "x86_64-pc-linux-gnu"

%class.LIR_Opr = type { i64 }
%class.LinearScan = type { ptr, ptr, ptr, ptr, %class.BlockList, i32, i8, i32, i32, i32, %class.GrowableArray.0, ptr, ptr, i8, %class.GrowableArray.3, %class.GrowableArray, %class.ResourceBitMap, %class.ResourceBitMap, %class.BitMap2D, %class.GrowableArray.6 }
%class.BlockList = type { %class.GrowableArray }
%class.GrowableArray.0 = type { %class.GrowableArrayWithAllocator.1, %class.GrowableArrayMetadata }
%class.GrowableArrayWithAllocator.1 = type { %class.GrowableArrayView.2 }
%class.GrowableArrayView.2 = type { %class.GrowableArrayBase, ptr }
%class.GrowableArrayBase = type { i32, i32 }
%class.GrowableArrayMetadata = type { i64 }
%class.GrowableArray.3 = type { %class.GrowableArrayWithAllocator.4, %class.GrowableArrayMetadata }
%class.GrowableArrayWithAllocator.4 = type { %class.GrowableArrayView.5 }
%class.GrowableArrayView.5 = type { %class.GrowableArrayBase, ptr }
%class.GrowableArray = type { %class.GrowableArrayWithAllocator, %class.GrowableArrayMetadata }
%class.GrowableArrayWithAllocator = type { %class.GrowableArrayView }
%class.GrowableArrayView = type { %class.GrowableArrayBase, ptr }
%class.ResourceBitMap = type { %class.GrowableBitMap }
%class.GrowableBitMap = type { %class.BitMap }
%class.BitMap = type { ptr, i64 }
%class.BitMap2D = type { %class.ResourceBitMap, i64 }
%class.GrowableArray.6 = type { %class.GrowableArrayWithAllocator.7, %class.GrowableArrayMetadata }
%class.GrowableArrayWithAllocator.7 = type { %class.GrowableArrayView.8 }
%class.GrowableArrayView.8 = type { %class.GrowableArrayBase, ptr }
%class.GrowableArray.15 = type { %class.GrowableArrayWithAllocator.16, %class.GrowableArrayMetadata }
%class.GrowableArrayWithAllocator.16 = type { %class.GrowableArrayView.17 }
%class.GrowableArrayView.17 = type { %class.GrowableArrayBase, ptr }
%class.Interval = type { i32, i8, ptr, %class.GrowableArray.21, ptr, ptr, i32, i32, i32, i32, %class.LIR_Opr, ptr, ptr, ptr, ptr, i32, i8, i32, i32, ptr }
%class.GrowableArray.21 = type { %class.GrowableArrayWithAllocator.22, %class.GrowableArrayMetadata }
%class.GrowableArrayWithAllocator.22 = type { %class.GrowableArrayView.23 }
%class.GrowableArrayView.23 = type { %class.GrowableArrayBase, ptr }
%class.LIR_InsertionBuffer = type { ptr, %class.GrowableArray.21, %class.GrowableArray.3 }
%class.MoveResolver = type <{ ptr, ptr, i32, [4 x i8], %class.LIR_InsertionBuffer, %class.GrowableArray.0, %class.GrowableArray.15, %class.GrowableArray.0, i8, [3 x i8], [56 x i32], [4 x i8] }>

@g_assert_poison = external global ptr, align 8
@_ZN11LIR_OprFact10illegalOprE = external global %class.LIR_Opr, align 8
@.str.17 = private unnamed_addr constant [40 x i8] c"out of virtual registers in linear scan\00", align 1
@.str.23 = private unnamed_addr constant [32 x i8] c"src/hotspot/share/c1/c1_LIR.hpp\00", align 1

; Function Attrs: mustprogress nounwind uwtable
define linkonce_odr hidden void @_ZN7LIR_OprC2El(ptr noundef nonnull align 8 dereferenceable(8) %0, i64 noundef %1) unnamed_addr #1 comdat align 2 {
  %3 = alloca ptr, align 8
  %4 = alloca i64, align 8
  store ptr %0, ptr %3, align 8
  store i64 %1, ptr %4, align 8
  %5 = load ptr, ptr %3, align 8
  %6 = getelementptr inbounds %class.LIR_Opr, ptr %5, i32 0, i32 0
  %7 = load i64, ptr %4, align 8
  store i64 %7, ptr %6, align 8
  ret void
}

; Function Attrs: mustprogress nounwind uwtable
define linkonce_odr hidden void @_ZN7LIR_OprC2Ev(ptr noundef nonnull align 8 dereferenceable(8) %0) unnamed_addr #1 comdat align 2 {
  %2 = alloca ptr, align 8
  store ptr %0, ptr %2, align 8
  %3 = load ptr, ptr %2, align 8
  %4 = getelementptr inbounds %class.LIR_Opr, ptr %3, i32 0, i32 0
  store i64 0, ptr %4, align 8
  ret void
}

; Function Attrs: mustprogress nounwind uwtable
define linkonce_odr hidden noundef ptr @_ZNK10LinearScan11compilationEv(ptr noundef nonnull align 8 dereferenceable(256) %0) #1 comdat align 2 {
  %2 = alloca ptr, align 8
  store ptr %0, ptr %2, align 8
  %3 = load ptr, ptr %2, align 8
  %4 = getelementptr inbounds %class.LinearScan, ptr %3, i32 0, i32 0
  %5 = load ptr, ptr %4, align 8
  ret ptr %5
}

; Function Attrs: mustprogress nounwind uwtable
define linkonce_odr hidden i64 @_ZN11LIR_OprFact16virtual_registerEi9BasicType(i32 noundef %0, i8 noundef zeroext %1) #1 comdat align 2 {
  %3 = alloca %class.LIR_Opr, align 8
  %4 = alloca i32, align 4
  %5 = alloca i8, align 1
  %6 = alloca %class.LIR_Opr, align 8
  %7 = alloca %class.LIR_Opr, align 8
  %8 = alloca %class.LIR_Opr, align 8
  %9 = alloca %class.LIR_Opr, align 8
  %10 = alloca %class.LIR_Opr, align 8
  %11 = alloca %class.LIR_Opr, align 8
  %12 = alloca %class.LIR_Opr, align 8
  store i32 %0, ptr %4, align 4
  store i8 %1, ptr %5, align 1
  %13 = load i32, ptr %4, align 4
  %14 = icmp sgt i32 %13, 10000
  br i1 %14, label %15, label %16

15:                                               ; preds = %2
  call void @llvm.memcpy.p0.p0.i64(ptr align 8 %3, ptr align 8 @_ZN11LIR_OprFact10illegalOprE, i64 8, i1 false)
  br label %80

16:                                               ; preds = %2
  call void @_ZN7LIR_OprC2Ev(ptr noundef nonnull align 8 dereferenceable(8) %3)
  %17 = load i8, ptr %5, align 1
  %18 = zext i8 %17 to i32
  switch i32 %18, label %75 [
    i32 12, label %19
    i32 13, label %19
    i32 17, label %27
    i32 10, label %35
    i32 15, label %43
    i32 11, label %51
    i32 6, label %59
    i32 7, label %67
  ]

19:                                               ; preds = %16, %16
  %20 = load i32, ptr %4, align 4
  %21 = shl i32 %20, 14
  %22 = or i32 %21, 24
  %23 = or i32 %22, 3
  %24 = or i32 %23, 0
  %25 = or i32 %24, 4096
  %26 = sext i32 %25 to i64
  call void @_ZN7LIR_OprC2El(ptr noundef nonnull align 8 dereferenceable(8) %6, i64 noundef %26)
  call void @llvm.memcpy.p0.p0.i64(ptr align 8 %3, ptr align 8 %6, i64 8, i1 false)
  br label %79

27:                                               ; preds = %16
  %28 = load i32, ptr %4, align 4
  %29 = shl i32 %28, 14
  %30 = or i32 %29, 56
  %31 = or i32 %30, 3
  %32 = or i32 %31, 0
  %33 = or i32 %32, 4096
  %34 = sext i32 %33 to i64
  call void @_ZN7LIR_OprC2El(ptr noundef nonnull align 8 dereferenceable(8) %7, i64 noundef %34)
  call void @llvm.memcpy.p0.p0.i64(ptr align 8 %3, ptr align 8 %7, i64 8, i1 false)
  br label %79

35:                                               ; preds = %16
  %36 = load i32, ptr %4, align 4
  %37 = shl i32 %36, 14
  %38 = or i32 %37, 8
  %39 = or i32 %38, 3
  %40 = or i32 %39, 0
  %41 = or i32 %40, 4096
  %42 = sext i32 %41 to i64
  call void @_ZN7LIR_OprC2El(ptr noundef nonnull align 8 dereferenceable(8) %8, i64 noundef %42)
  call void @llvm.memcpy.p0.p0.i64(ptr align 8 %3, ptr align 8 %8, i64 8, i1 false)
  br label %79

43:                                               ; preds = %16
  %44 = load i32, ptr %4, align 4
  %45 = shl i32 %44, 14
  %46 = or i32 %45, 32
  %47 = or i32 %46, 3
  %48 = or i32 %47, 0
  %49 = or i32 %48, 4096
  %50 = sext i32 %49 to i64
  call void @_ZN7LIR_OprC2El(ptr noundef nonnull align 8 dereferenceable(8) %9, i64 noundef %50)
  call void @llvm.memcpy.p0.p0.i64(ptr align 8 %3, ptr align 8 %9, i64 8, i1 false)
  br label %79

51:                                               ; preds = %16
  %52 = load i32, ptr %4, align 4
  %53 = shl i32 %52, 14
  %54 = or i32 %53, 16
  %55 = or i32 %54, 3
  %56 = or i32 %55, 128
  %57 = or i32 %56, 4096
  %58 = sext i32 %57 to i64
  call void @_ZN7LIR_OprC2El(ptr noundef nonnull align 8 dereferenceable(8) %10, i64 noundef %58)
  call void @llvm.memcpy.p0.p0.i64(ptr align 8 %3, ptr align 8 %10, i64 8, i1 false)
  br label %79

59:                                               ; preds = %16
  %60 = load i32, ptr %4, align 4
  %61 = shl i32 %60, 14
  %62 = or i32 %61, 40
  %63 = or i32 %62, 5
  %64 = or i32 %63, 0
  %65 = or i32 %64, 4096
  %66 = sext i32 %65 to i64
  call void @_ZN7LIR_OprC2El(ptr noundef nonnull align 8 dereferenceable(8) %11, i64 noundef %66)
  call void @llvm.memcpy.p0.p0.i64(ptr align 8 %3, ptr align 8 %11, i64 8, i1 false)
  br label %79

67:                                               ; preds = %16
  %68 = load i32, ptr %4, align 4
  %69 = shl i32 %68, 14
  %70 = or i32 %69, 48
  %71 = or i32 %70, 5
  %72 = or i32 %71, 128
  %73 = or i32 %72, 4096
  %74 = sext i32 %73 to i64
  call void @_ZN7LIR_OprC2El(ptr noundef nonnull align 8 dereferenceable(8) %12, i64 noundef %74)
  call void @llvm.memcpy.p0.p0.i64(ptr align 8 %3, ptr align 8 %12, i64 8, i1 false)
  br label %79

75:                                               ; preds = %16
  br label %76

76:                                               ; preds = %75
  %77 = load ptr, ptr @g_assert_poison, align 8
  store i8 88, ptr %77, align 1
  call void @_Z28report_should_not_reach_herePKci(ptr noundef @.str.23, i32 noundef 753) #9
  unreachable

78:                                               ; No predecessors!
  call void @llvm.memcpy.p0.p0.i64(ptr align 8 %3, ptr align 8 @_ZN11LIR_OprFact10illegalOprE, i64 8, i1 false)
  br label %79

79:                                               ; preds = %78, %67, %59, %51, %43, %35, %27, %19
  br label %80

80:                                               ; preds = %79, %15
  %81 = getelementptr inbounds %class.LIR_Opr, ptr %3, i32 0, i32 0
  %82 = load i64, ptr %81, align 8
  ret i64 %82
}

; Function Attrs: mustprogress nounwind uwtable
define linkonce_odr hidden noundef zeroext i8 @_ZNK8Interval4typeEv(ptr noundef nonnull align 8 dereferenceable(136) %0) #1 comdat align 2 {
  %2 = alloca ptr, align 8
  store ptr %0, ptr %2, align 8
  %3 = load ptr, ptr %2, align 8
  %4 = getelementptr inbounds %class.Interval, ptr %3, i32 0, i32 1
  %5 = load i8, ptr %4, align 4
  ret i8 %5
}

; Function Attrs: mustprogress nounwind uwtable
define linkonce_odr hidden void @_ZNK10LinearScan7bailoutEPKc(ptr noundef nonnull align 8 dereferenceable(256) %0, ptr noundef %1) #1 comdat align 2 {
  %3 = alloca ptr, align 8
  %4 = alloca ptr, align 8
  store ptr %0, ptr %3, align 8
  store ptr %1, ptr %4, align 8
  %5 = load ptr, ptr %3, align 8
  %6 = call noundef ptr @_ZNK10LinearScan11compilationEv(ptr noundef nonnull align 8 dereferenceable(256) %5)
  %7 = load ptr, ptr %4, align 8
  call void @_ZN11Compilation7bailoutEPKc(ptr noundef nonnull align 8 dereferenceable(704) %6, ptr noundef %7)
  ret void
}

; Function Attrs: mustprogress nounwind uwtable
define linkonce_odr hidden noundef i32 @_ZNK8Interval7reg_numEv(ptr noundef nonnull align 8 dereferenceable(136) %0) #1 comdat align 2 {
  %2 = alloca ptr, align 8
  store ptr %0, ptr %2, align 8
  %3 = load ptr, ptr %2, align 8
  %4 = getelementptr inbounds %class.Interval, ptr %3, i32 0, i32 0
  %5 = load i32, ptr %4, align 8
  ret i32 %5
}

; Function Attrs: mustprogress nounwind uwtable
define hidden i64 @_ZN12MoveResolver20get_virtual_registerEP8Interval(ptr noundef nonnull align 8 dereferenceable(380) %0, ptr noundef %1) #1 align 2 {
  %3 = alloca %class.LIR_Opr, align 8
  %4 = alloca ptr, align 8
  %5 = alloca ptr, align 8
  %6 = alloca i32, align 4
  store ptr %0, ptr %4, align 8
  store ptr %1, ptr %5, align 8
  %7 = load ptr, ptr %4, align 8
  %8 = load ptr, ptr %5, align 8
  %9 = call noundef i32 @_ZNK8Interval7reg_numEv(ptr noundef nonnull align 8 dereferenceable(136) %8)
  store i32 %9, ptr %6, align 4
  %10 = load i32, ptr %6, align 4
  %11 = add nsw i32 %10, 20
  %12 = icmp sge i32 %11, 10000
  br i1 %12, label %13, label %21

13:                                               ; preds = %2
  %14 = getelementptr inbounds %class.MoveResolver, ptr %7, i32 0, i32 0
  %15 = load ptr, ptr %14, align 8
  call void @_ZNK10LinearScan7bailoutEPKc(ptr noundef nonnull align 8 dereferenceable(256) %15, ptr noundef @.str.17)
  %16 = load i32, ptr %6, align 4
  %17 = add nsw i32 %16, 2
  %18 = icmp sge i32 %17, 10000
  br i1 %18, label %19, label %20

19:                                               ; preds = %13
  store i32 609, ptr %6, align 4
  br label %20

20:                                               ; preds = %19, %13
  br label %21

21:                                               ; preds = %20, %2
  %22 = load i32, ptr %6, align 4
  %23 = load ptr, ptr %5, align 8
  %24 = call noundef zeroext i8 @_ZNK8Interval4typeEv(ptr noundef nonnull align 8 dereferenceable(136) %23)
  %25 = call i64 @_ZN11LIR_OprFact16virtual_registerEi9BasicType(i32 noundef %22, i8 noundef zeroext %24)
  %26 = getelementptr inbounds %class.LIR_Opr, ptr %3, i32 0, i32 0
  store i64 %25, ptr %26, align 8
  %27 = getelementptr inbounds %class.LIR_Opr, ptr %3, i32 0, i32 0
  %28 = load i64, ptr %27, align 8
  ret i64 %28
}