; Function Attrs: mustprogress nounwind uwtable
define hidden i64 @_ZN12MoveResolver20get_virtual_registerEP8Interval(ptr nocapture noundef nonnull readonly align 8 dereferenceable(380) %0, ptr nocapture noundef readonly %1) local_unnamed_addr #0 align 2 {
  %3 = load i32, ptr %1, align 8
  %4 = icmp sgt i32 %3, 9979
  br i1 %4, label %5, label %select.unfold

5:                                                ; preds = %2
  %6 = load ptr, ptr %0, align 8
  %7 = load ptr, ptr %6, align 8
  tail call void @_ZN11Compilation7bailoutEPKc(ptr noundef nonnull align 8 dereferenceable(704) %7, ptr noundef nonnull @.str.17) #22
  %8 = icmp ugt i32 %3, 9997
  %spec.select = select i1 %8, i32 609, i32 %3
  br label %select.unfold

select.unfold:                                    ; preds = %5, %2
  %.0 = phi i32 [ %3, %2 ], [ %spec.select, %5 ]
  %9 = getelementptr inbounds i8, ptr %1, i64 4
  %10 = load i8, ptr %9, align 4
  %switch.tableidx = add i8 %10, -6
  %11 = icmp ult i8 %switch.tableidx, 12
  br i1 %11, label %switch.hole_check, label %12

12:                                               ; preds = %switch.hole_check, %select.unfold
  %13 = load ptr, ptr @g_assert_poison, align 8
  store i8 88, ptr %13, align 1
  tail call void @_Z28report_should_not_reach_herePKci(ptr noundef nonnull @.str.23, i32 noundef 753) #23
  unreachable

switch.hole_check:                                ; preds = %select.unfold
  %switch.maskindex = zext nneg i8 %switch.tableidx to i16
  %switch.shifted = lshr i16 2803, %switch.maskindex
  %switch.lobit = trunc i16 %switch.shifted to i1
  br i1 %switch.lobit, label %switch.lookup, label %12

switch.lookup:                                    ; preds = %switch.hole_check
  %14 = zext nneg i8 %switch.tableidx to i64
  %switch.gep = getelementptr inbounds [12 x i32], ptr @switch.table._ZN12MoveResolver16resolve_mappingsEv.8, i64 0, i64 %14
  %switch.load = load i32, ptr %switch.gep, align 4
  %15 = shl i32 %.0, 14
  %16 = or disjoint i32 %15, %switch.load
  %.sroa.015.0.i = sext i32 %16 to i64
  ret i64 %.sroa.015.0.i
}